target datalayout = "e-m:e-p270:32:32-p271:32:32-p272:64:64-i64:64-i128:128-f80:128-n8:16:32:64-S128"
target triple = "x86_64-unknown-linux-gnu"

module asm ".section \22.export_symbol\22,\22a\22 ; __export_symbol_blk_mq_virtio_map_queues: ; .asciz \22GPL\22 ; .asciz \22\22 ; .balign 8 ; .quad blk_mq_virtio_map_queues ; .previous"

@__UNIQUE_ID___addressable_blk_mq_virtio_map_queues434 = internal global ptr @blk_mq_virtio_map_queues, section ".discard.addressable", align 8
@llvm.compiler.used = appending global [1 x ptr] [ptr @__UNIQUE_ID___addressable_blk_mq_virtio_map_queues434], section "llvm.metadata"

; Function Attrs: fn_ret_thunk_extern nounwind null_pointer_is_valid
define dso_local void @blk_mq_virtio_map_queues(ptr noundef %0, ptr noundef %1, i32 noundef %2) #0 align 16 {
  %4 = getelementptr inbounds i8, ptr %1, i64 752
  %5 = load ptr, ptr %4, align 8
  %6 = getelementptr inbounds i8, ptr %5, i64 104
  %7 = load ptr, ptr %6, align 8
  %8 = icmp eq ptr %7, null
  br i1 %8, label %49, label %9

9:                                                ; preds = %3
  %10 = getelementptr inbounds i8, ptr %0, i64 8
  %11 = load i32, ptr %10, align 8
  %12 = icmp eq i32 %11, 0
  br i1 %12, label %50, label %13

13:                                               ; preds = %9
  %14 = getelementptr inbounds i8, ptr %0, i64 12
  br label %15

15:                                               ; preds = %45, %13
  %16 = phi i32 [ 0, %13 ], [ %46, %45 ]
  %17 = load ptr, ptr %4, align 8
  %18 = getelementptr inbounds i8, ptr %17, i64 104
  %19 = load ptr, ptr %18, align 8
  %20 = add i32 %16, %2
  %21 = tail call ptr %19(ptr noundef %1, i32 noundef %20) #2
  %22 = icmp eq ptr %21, null
  br i1 %22, label %49, label %23

23:                                               ; preds = %38, %15
  %24 = phi i64 [ %44, %38 ], [ 0, %15 ]
  %25 = and i64 %24, 4294967295
  %26 = icmp ugt i64 %25, 63
  br i1 %26, label %34, label %27, !prof !5

27:                                               ; preds = %23
  %28 = load i64, ptr %21, align 8
  %29 = shl nsw i64 -1, %25
  %30 = and i64 %28, %29
  %31 = icmp eq i64 %30, 0
  br i1 %31, label %34, label %32

32:                                               ; preds = %27
  %33 = tail call i64 asm "rep; bsf $1,$0", "=r,rm,~{dirflag},~{fpsr},~{flags}"(i64 %30) #3, !srcloc !6
  br label %34

34:                                               ; preds = %32, %27, %23
  %35 = phi i64 [ 64, %23 ], [ %33, %32 ], [ 64, %27 ]
  %36 = and i64 %35, 4294967232
  %37 = icmp eq i64 %36, 0
  br i1 %37, label %38, label %45

38:                                               ; preds = %34
  %39 = load i32, ptr %14, align 4
  %40 = add i32 %39, %16
  %41 = load ptr, ptr %0, align 8
  %42 = and i64 %35, 63
  %43 = getelementptr i32, ptr %41, i64 %42
  store i32 %40, ptr %43, align 4
  %44 = add nuw nsw i64 %35, 1
  br label %23, !llvm.loop !7

45:                                               ; preds = %34
  %46 = add nuw i32 %16, 1
  %47 = load i32, ptr %10, align 8
  %48 = icmp ult i32 %46, %47
  br i1 %48, label %15, label %50, !llvm.loop !10

49:                                               ; preds = %15, %3
  tail call void @blk_mq_map_queues(ptr noundef %0) #2
  br label %50

50:                                               ; preds = %49, %45, %9
  ret void
}

; Function Attrs: null_pointer_is_valid
declare dso_local void @blk_mq_map_queues(ptr noundef) local_unnamed_addr #1


!llvm.module.flags = !{!0, !1, !2, !3, !4}

!0 = !{i32 1, !"wchar_size", i32 2}
!1 = !{i32 8, !"cf-protection-branch", i32 1}
!2 = !{i32 4, !"function_return_thunk_extern", i32 1}
!3 = !{i32 4, !"indirect_branch_cs_prefix", i32 1}
!4 = !{i32 4, !"SkipRaxSetup", i32 1}
!5 = !{!"branch_weights", i32 1, i32 2000}
!6 = !{i64 881137}
!7 = distinct !{!7, !8, !9}
!8 = !{!"llvm.loop.mustprogress"}
!9 = !{!"llvm.loop.unroll.disable"}
!10 = distinct !{!10, !8, !9}
